; Function Attrs: nounwind uwtable
define internal fastcc void @arena_prepare_base_deletion_sync(ptr noundef %0, ptr noundef nonnull %1, ptr noundef nonnull captures(none) %2, ptr noundef nonnull captures(none) %3) unnamed_addr #0 {
  %5 = getelementptr inbounds nuw i8, ptr %1, i64 64
  %6 = tail call i32 @pthread_mutex_trylock(ptr noundef nonnull %5) #16
  %.not = icmp eq i32 %6, 0
  br i1 %.not, label %7, label %20

7:                                                ; preds = %4
  %8 = getelementptr inbounds nuw i8, ptr %1, i64 56
  %9 = load i64, ptr %8, align 8, !tbaa !71
  %10 = add i64 %9, 1
  store i64 %10, ptr %8, align 8, !tbaa !71
  %11 = getelementptr inbounds nuw i8, ptr %1, i64 48
  %12 = load ptr, ptr %11, align 8, !tbaa !73
  %.not.i.i = icmp eq ptr %12, %0
  br i1 %.not.i.i, label %17, label %13

13:                                               ; preds = %7
  store ptr %0, ptr %11, align 8, !tbaa !73
  %14 = getelementptr inbounds nuw i8, ptr %1, i64 40
  %15 = load i64, ptr %14, align 8, !tbaa !74
  %16 = add i64 %15, 1
  store i64 %16, ptr %14, align 8, !tbaa !74
  br label %17

17:                                               ; preds = %7, %13
  %18 = getelementptr inbounds nuw i8, ptr %1, i64 104
  store atomic i8 0, ptr %18 monotonic, align 1
  %19 = tail call i32 @pthread_mutex_unlock(ptr noundef nonnull %5) #16
  br label %47

20:                                               ; preds = %4
  %21 = getelementptr inbounds nuw i8, ptr %1, i64 104
  store atomic i8 1, ptr %21 monotonic, align 1
  %22 = load i32, ptr %3, align 4, !tbaa !4
  %23 = add i32 %22, 1
  %24 = zext i32 %22 to i64
  %25 = getelementptr inbounds nuw ptr, ptr %2, i64 %24
  store ptr %1, ptr %25, align 8, !tbaa !166
  %26 = icmp eq i32 %23, 32
  br i1 %26, label %.lr.ph.i, label %arena_prepare_base_deletion_sync_finish.exit

.lr.ph.i:                                         ; preds = %20, %malloc_mutex_lock.exit.i
  %indvars.iv.i = phi i64 [ %indvars.iv.next.i, %malloc_mutex_lock.exit.i ], [ 0, %20 ]
  %27 = getelementptr inbounds nuw ptr, ptr %2, i64 %indvars.iv.i
  %28 = load ptr, ptr %27, align 8, !tbaa !166
  %29 = getelementptr inbounds nuw i8, ptr %28, i64 64
  %30 = tail call i32 @pthread_mutex_trylock(ptr noundef nonnull %29) #16
  %.not.i.i14 = icmp eq i32 %30, 0
  br i1 %.not.i.i14, label %33, label %31

31:                                               ; preds = %.lr.ph.i
  tail call void @je_malloc_mutex_lock_slow(ptr noundef nonnull %28) #16
  %32 = getelementptr inbounds nuw i8, ptr %28, i64 104
  store atomic i8 1, ptr %32 monotonic, align 1
  br label %33

33:                                               ; preds = %31, %.lr.ph.i
  %34 = getelementptr inbounds nuw i8, ptr %28, i64 56
  %35 = load i64, ptr %34, align 8, !tbaa !71
  %36 = add i64 %35, 1
  store i64 %36, ptr %34, align 8, !tbaa !71
  %37 = getelementptr inbounds nuw i8, ptr %28, i64 48
  %38 = load ptr, ptr %37, align 8, !tbaa !73
  %.not.i.i.i = icmp eq ptr %38, %0
  br i1 %.not.i.i.i, label %malloc_mutex_lock.exit.i, label %39

39:                                               ; preds = %33
  store ptr %0, ptr %37, align 8, !tbaa !73
  %40 = getelementptr inbounds nuw i8, ptr %28, i64 40
  %41 = load i64, ptr %40, align 8, !tbaa !74
  %42 = add i64 %41, 1
  store i64 %42, ptr %40, align 8, !tbaa !74
  br label %malloc_mutex_lock.exit.i

malloc_mutex_lock.exit.i:                         ; preds = %39, %33
  %43 = load ptr, ptr %27, align 8, !tbaa !166
  %44 = getelementptr inbounds nuw i8, ptr %43, i64 104
  store atomic i8 0, ptr %44 monotonic, align 1
  %45 = getelementptr inbounds nuw i8, ptr %43, i64 64
  %46 = tail call i32 @pthread_mutex_unlock(ptr noundef nonnull %45) #16
  %indvars.iv.next.i = add nuw nsw i64 %indvars.iv.i, 1
  %exitcond.not.i = icmp eq i64 %indvars.iv.next.i, 32
  br i1 %exitcond.not.i, label %arena_prepare_base_deletion_sync_finish.exit, label %.lr.ph.i, !llvm.loop !167

arena_prepare_base_deletion_sync_finish.exit:     ; preds = %malloc_mutex_lock.exit.i, %20
  %.0 = phi i32 [ %23, %20 ], [ 0, %malloc_mutex_lock.exit.i ]
  store i32 %.0, ptr %3, align 4, !tbaa !4
  br label %47

47:                                               ; preds = %arena_prepare_base_deletion_sync_finish.exit, %17
  ret void
}